; Function Attrs: mustprogress nofree norecurse nosync nounwind willreturn memory(argmem: write) uwtable
define dso_local void @Curl_hash_offt_init(ptr noundef writeonly captures(none) initializes((0, 48)) %0, i64 noundef %1, ptr noundef %2) local_unnamed_addr #0 {
  store ptr null, ptr %0, align 8, !tbaa !4
  %4 = getelementptr inbounds nuw i8, ptr %0, i64 8
  store ptr @Curl_hash_str, ptr %4, align 8, !tbaa !11
  %5 = getelementptr inbounds nuw i8, ptr %0, i64 16
  store ptr @Curl_str_key_compare, ptr %5, align 8, !tbaa !12
  %6 = getelementptr inbounds nuw i8, ptr %0, i64 24
  store ptr %2, ptr %6, align 8, !tbaa !13
  %7 = getelementptr inbounds nuw i8, ptr %0, i64 40
  store i64 0, ptr %7, align 8, !tbaa !14
  %8 = getelementptr inbounds nuw i8, ptr %0, i64 32
  store i64 %1, ptr %8, align 8, !tbaa !15
  ret void
}